; Function Attrs: nounwind uwtable
define zeroext range(i8 0, 2) i8 @l_Lean_PersistentHashMap_Node_isEmpty___rarg(ptr noundef %0) local_unnamed_addr #2 {
  %2 = ptrtoint ptr %0 to i64
  %3 = and i64 %2, 1
  %.not.i20 = icmp eq i64 %3, 0
  br i1 %.not.i20, label %7, label %4

4:                                                ; preds = %1
  %5 = lshr i64 %2, 1
  %6 = trunc i64 %5 to i32
  br label %lean_obj_tag.exit

7:                                                ; preds = %1
  %8 = getelementptr i8, ptr %0, i64 4
  %.val.i = load i32, ptr %8, align 4
  %9 = lshr i32 %.val.i, 24
  br label %lean_obj_tag.exit

lean_obj_tag.exit:                                ; preds = %4, %7
  %.0.i21 = phi i32 [ %6, %4 ], [ %9, %7 ]
  %10 = icmp eq i32 %.0.i21, 0
  br i1 %10, label %lean_nat_lt.exit, label %lean_dec.exit17

lean_nat_lt.exit:                                 ; preds = %lean_obj_tag.exit
  %11 = getelementptr inbounds nuw i8, ptr %0, i64 8
  %12 = load ptr, ptr %11, align 8, !tbaa !9
  %13 = getelementptr i8, ptr %12, i64 8
  %.val = load i64, ptr %13, align 8, !tbaa !12
  %.mask = and i64 %.val, 9223372036854775807
  %.not = icmp eq i64 %.mask, 0
  br i1 %.not, label %lean_dec.exit17, label %lean_dec.exit

lean_dec.exit:                                    ; preds = %lean_nat_lt.exit
  %14 = tail call zeroext i8 @l_Array_anyMUnsafe_any___at_Lean_PersistentHashMap_Node_isEmpty___spec__1___rarg(ptr noundef nonnull %12, i64 noundef 0, i64 noundef %.mask)
  %. = xor i8 %14, 1
  br label %lean_dec.exit17

lean_dec.exit17:                                  ; preds = %lean_nat_lt.exit, %lean_obj_tag.exit, %lean_dec.exit
  %.2 = phi i8 [ %., %lean_dec.exit ], [ 0, %lean_obj_tag.exit ], [ 1, %lean_nat_lt.exit ]
  ret i8 %.2
}